target datalayout = "e-m:e-p270:32:32-p271:32:32-p272:64:64-i64:64-i128:128-f80:128-n8:16:32:64-S128"
target triple = "x86_64-pc-linux-gnu"

%"class.Luau::AstNode.base" = type <{ ptr, i32, %"struct.Luau::Location" }>
%"struct.Luau::Location" = type { %"struct.Luau::Position", %"struct.Luau::Position" }
%"struct.Luau::Position" = type { i32, i32 }
%"class.Luau::AstType.base" = type { %"class.Luau::AstNode.base" }
%"struct.Luau::AstArray.284" = type { ptr, i64 }
%"struct.Luau::AstArray.285" = type { ptr, i64 }
%"struct.Luau::AstTypeList" = type { %"struct.Luau::AstArray.292", ptr }
%"struct.Luau::AstArray.292" = type { ptr, i64 }
%"struct.Luau::AstArray" = type { ptr, i64 }
%"class.Luau::AstTypeFunction" = type { %"class.Luau::AstType.base", %"struct.Luau::AstArray", %"struct.Luau::AstArray.284", %"struct.Luau::AstArray.285", %"struct.Luau::AstTypeList", %"struct.Luau::AstArray.690", %"struct.Luau::AstTypeList" }
%"struct.Luau::AstArray.690" = type { ptr, i64 }

; Function Attrs: mustprogress uwtable
define dso_local void @_ZN4Luau12TypeChecker25visitEPNS_15AstTypeFunctionE(ptr noundef nonnull align 8 dereferenceable(784) %0, ptr noundef %1) #7 align 2 {
  %3 = alloca ptr, align 8
  %4 = alloca ptr, align 8
  %5 = alloca %"struct.Luau::AstArray.284", align 8
  %6 = alloca %"struct.Luau::AstArray.285", align 8
  %7 = alloca %"struct.Luau::AstTypeList", align 8
  %8 = alloca %"struct.Luau::AstTypeList", align 8
  store ptr %0, ptr %3, align 8, !tbaa !131
  store ptr %1, ptr %4, align 8, !tbaa !814
  %9 = load ptr, ptr %3, align 8
  %10 = load ptr, ptr %4, align 8, !tbaa !814
  %11 = getelementptr inbounds nuw %"class.Luau::AstTypeFunction", ptr %10, i32 0, i32 2
  call void @llvm.memcpy.p0.p0.i64(ptr align 8 %5, ptr align 8 %11, i64 16, i1 false), !tbaa.struct !739
  %12 = load ptr, ptr %4, align 8, !tbaa !814
  %13 = getelementptr inbounds nuw %"class.Luau::AstTypeFunction", ptr %12, i32 0, i32 3
  call void @llvm.memcpy.p0.p0.i64(ptr align 8 %6, ptr align 8 %13, i64 16, i1 false), !tbaa.struct !742
  %14 = getelementptr inbounds nuw { ptr, i64 }, ptr %5, i32 0, i32 0
  %15 = load ptr, ptr %14, align 8
  %16 = getelementptr inbounds nuw { ptr, i64 }, ptr %5, i32 0, i32 1
  %17 = load i64, ptr %16, align 8
  %18 = getelementptr inbounds nuw { ptr, i64 }, ptr %6, i32 0, i32 0
  %19 = load ptr, ptr %18, align 8
  %20 = getelementptr inbounds nuw { ptr, i64 }, ptr %6, i32 0, i32 1
  %21 = load i64, ptr %20, align 8
  call void @_ZN4Luau12TypeChecker213visitGenericsENS_8AstArrayIPNS_14AstGenericTypeEEENS1_IPNS_18AstGenericTypePackEEE(ptr noundef nonnull align 8 dereferenceable(784) %9, ptr %15, i64 %17, ptr %19, i64 %21)
  %22 = load ptr, ptr %4, align 8, !tbaa !814
  %23 = getelementptr inbounds nuw %"class.Luau::AstTypeFunction", ptr %22, i32 0, i32 4
  call void @llvm.memcpy.p0.p0.i64(ptr align 8 %7, ptr align 8 %23, i64 24, i1 false), !tbaa.struct !749
  call void @_ZN4Luau12TypeChecker25visitENS_11AstTypeListE(ptr noundef nonnull align 8 dereferenceable(784) %9, ptr noundef byval(%"struct.Luau::AstTypeList") align 8 %7)
  %24 = load ptr, ptr %4, align 8, !tbaa !814
  %25 = getelementptr inbounds nuw %"class.Luau::AstTypeFunction", ptr %24, i32 0, i32 6
  call void @llvm.memcpy.p0.p0.i64(ptr align 8 %8, ptr align 8 %25, i64 24, i1 false), !tbaa.struct !749
  call void @_ZN4Luau12TypeChecker25visitENS_11AstTypeListE(ptr noundef nonnull align 8 dereferenceable(784) %9, ptr noundef byval(%"struct.Luau::AstTypeList") align 8 %8)
  ret void
}